target datalayout = "e-m:e-p270:32:32-p271:32:32-p272:64:64-i64:64-i128:128-f80:128-n8:16:32:64-S128"
target triple = "x86_64-unknown-linux-gnu"

%"class.google::protobuf::internal::SymbolBase" = type { i8 }
%"class.google::protobuf::EnumValueDescriptor" = type { %"class.google::protobuf::internal::SymbolBaseN", %"class.google::protobuf::internal::SymbolBaseN.81", i32, ptr, ptr, ptr, ptr, ptr }
%"class.google::protobuf::internal::SymbolBaseN" = type { %"class.google::protobuf::internal::SymbolBase" }
%"class.google::protobuf::internal::SymbolBaseN.81" = type { %"class.google::protobuf::internal::SymbolBase" }

; Function Attrs: mustprogress nounwind uwtable
define linkonce_odr hidden noundef i32 @_ZNK6google8protobuf19EnumValueDescriptor6numberEv(ptr noundef nonnull align 8 dereferenceable(48) %this) #4 comdat align 2 {
entry:
  %this.addr = alloca ptr, align 8
  store ptr %this, ptr %this.addr, align 8
  %this1 = load ptr, ptr %this.addr, align 8
  %number_ = getelementptr inbounds %"class.google::protobuf::EnumValueDescriptor", ptr %this1, i32 0, i32 2
  %0 = load i32, ptr %number_, align 4
  ret i32 %0
}

; Function Attrs: mustprogress uwtable
define noundef zeroext i1 @_ZN6google8protobuf4util21SimpleFieldComparator11CompareEnumERKNS0_15FieldDescriptorEPKNS0_19EnumValueDescriptorES8_(ptr noundef nonnull align 8 dereferenceable(64) %this, ptr noundef nonnull align 8 dereferenceable(88) %0, ptr noundef %value_1, ptr noundef %value_2) #6 align 2 {
entry:
  %this.addr = alloca ptr, align 8
  %.addr = alloca ptr, align 8
  %value_1.addr = alloca ptr, align 8
  %value_2.addr = alloca ptr, align 8
  store ptr %this, ptr %this.addr, align 8
  store ptr %0, ptr %.addr, align 8
  store ptr %value_1, ptr %value_1.addr, align 8
  store ptr %value_2, ptr %value_2.addr, align 8
  %1 = load ptr, ptr %value_1.addr, align 8
  %call = call noundef i32 @_ZNK6google8protobuf19EnumValueDescriptor6numberEv(ptr noundef nonnull align 8 dereferenceable(48) %1)
  %2 = load ptr, ptr %value_2.addr, align 8
  %call2 = call noundef i32 @_ZNK6google8protobuf19EnumValueDescriptor6numberEv(ptr noundef nonnull align 8 dereferenceable(48) %2)
  %cmp = icmp eq i32 %call, %call2
  ret i1 %cmp
}