; Function Attrs: mustprogress nofree norecurse nosync nounwind willreturn memory(argmem: read) uwtable
define noundef zeroext i1 @_ZN6google8protobuf4util21SimpleFieldComparator11CompareEnumERKNS0_15FieldDescriptorEPKNS0_19EnumValueDescriptorES8_(ptr nocapture noundef nonnull readnone align 8 dereferenceable(64) %this, ptr nocapture noundef nonnull readnone align 8 dereferenceable(88) %0, ptr nocapture noundef readonly %value_1, ptr nocapture noundef readonly %value_2) local_unnamed_addr #9 align 2 {
entry:
  %number_.i = getelementptr inbounds i8, ptr %value_1, i64 4
  %1 = load i32, ptr %number_.i, align 4
  %number_.i1 = getelementptr inbounds i8, ptr %value_2, i64 4
  %2 = load i32, ptr %number_.i1, align 4
  %cmp = icmp eq i32 %1, %2
  ret i1 %cmp
}